target datalayout = "e-m:e-p270:32:32-p271:32:32-p272:64:64-i64:64-i128:128-f80:128-n8:16:32:64-S128"
target triple = "x86_64-pc-linux-gnu"

%struct.recent_settings_tag = type { i32, i32, i32, i32, i32, i32, i32, i32, i32, i32, i32, i32, i32, i32, i32, i32, i32, i32, i32, i32, i32, i32, i32, i32, i32, i32, i32, i32, i32, i32, i32, i32, i32, i32, i32, i32, ptr, ptr, ptr, i32, i32, ptr, ptr, ptr, ptr, ptr, ptr, i32, ptr, ptr, ptr }
%class.QColor = type <{ i32, %"union.QColor::CT", [2 x i8] }>
%"union.QColor::CT" = type { %struct.anon }
%struct.anon = type { i16, i16, i16, i16, i16 }
%class.ByteViewText = type { %class.QAbstractScrollArea, %class.IDataPrintable, ptr, %class.QByteArray, %class.QColor, %class.QColor, i32, %class.QMenu, i32, i32, i32, i32, i32, i32, i32, i32, i8, i8, i8, i32, i32, i32, %class.QList, i8, %class.QList.5, ptr, ptr, ptr, ptr, ptr, ptr, ptr, ptr }
%class.QAbstractScrollArea = type { %class.QFrame }
%class.QFrame = type { %class.QWidget }
%class.QWidget = type { %class.QObject, %class.QPaintDevice.base, ptr }
%class.QObject = type { ptr, %class.QScopedPointer }
%class.QScopedPointer = type { ptr }
%class.QPaintDevice.base = type <{ ptr, i16 }>
%class.IDataPrintable = type { ptr }
%class.QByteArray = type { %struct.QArrayDataPointer }
%struct.QArrayDataPointer = type { ptr, ptr, i64 }
%class.QMenu = type { %class.QWidget }
%class.QList = type { %struct.QArrayDataPointer.4 }
%struct.QArrayDataPointer.4 = type { ptr, ptr, i64 }
%class.QList.5 = type { %struct.QArrayDataPointer.8 }
%struct.QArrayDataPointer.8 = type { ptr, ptr, i64 }

@recent = external global %struct.recent_settings_tag, align 8

; Function Attrs: mustprogress uwtable
define void @_ZN12ByteViewText17updateContextMenuEv(ptr noundef nonnull align 8 dereferenceable(328) %0) #0 align 2 {
  %2 = alloca ptr, align 8
  store ptr %0, ptr %2, align 8
  %3 = load ptr, ptr %2, align 8
  %4 = getelementptr inbounds %class.ByteViewText, ptr %3, i32 0, i32 25
  %5 = load ptr, ptr %4, align 8
  %6 = load i32, ptr getelementptr inbounds (%struct.recent_settings_tag, ptr @recent, i32 0, i32 17), align 4
  %7 = icmp ne i32 %6, 0
  call void @_ZN7QAction10setCheckedEb(ptr noundef nonnull align 8 dereferenceable(16) %5, i1 noundef zeroext %7)
  %8 = load i32, ptr getelementptr inbounds (%struct.recent_settings_tag, ptr @recent, i32 0, i32 14), align 8
  switch i32 %8, label %21 [
    i32 0, label %9
    i32 1, label %12
    i32 2, label %15
    i32 3, label %18
  ]

9:                                                ; preds = %1
  %10 = getelementptr inbounds %class.ByteViewText, ptr %3, i32 0, i32 26
  %11 = load ptr, ptr %10, align 8
  call void @_ZN7QAction10setCheckedEb(ptr noundef nonnull align 8 dereferenceable(16) %11, i1 noundef zeroext true)
  br label %21

12:                                               ; preds = %1
  %13 = getelementptr inbounds %class.ByteViewText, ptr %3, i32 0, i32 29
  %14 = load ptr, ptr %13, align 8
  call void @_ZN7QAction10setCheckedEb(ptr noundef nonnull align 8 dereferenceable(16) %14, i1 noundef zeroext true)
  br label %21

15:                                               ; preds = %1
  %16 = getelementptr inbounds %class.ByteViewText, ptr %3, i32 0, i32 27
  %17 = load ptr, ptr %16, align 8
  call void @_ZN7QAction10setCheckedEb(ptr noundef nonnull align 8 dereferenceable(16) %17, i1 noundef zeroext true)
  br label %21

18:                                               ; preds = %1
  %19 = getelementptr inbounds %class.ByteViewText, ptr %3, i32 0, i32 28
  %20 = load ptr, ptr %19, align 8
  call void @_ZN7QAction10setCheckedEb(ptr noundef nonnull align 8 dereferenceable(16) %20, i1 noundef zeroext true)
  br label %21

21:                                               ; preds = %18, %15, %12, %9, %1
  %22 = load i32, ptr getelementptr inbounds (%struct.recent_settings_tag, ptr @recent, i32 0, i32 15), align 4
  switch i32 %22, label %32 [
    i32 0, label %23
    i32 1, label %26
    i32 2, label %29
  ]

23:                                               ; preds = %21
  %24 = getelementptr inbounds %class.ByteViewText, ptr %3, i32 0, i32 30
  %25 = load ptr, ptr %24, align 8
  call void @_ZN7QAction10setCheckedEb(ptr noundef nonnull align 8 dereferenceable(16) %25, i1 noundef zeroext true)
  br label %32

26:                                               ; preds = %21
  %27 = getelementptr inbounds %class.ByteViewText, ptr %3, i32 0, i32 31
  %28 = load ptr, ptr %27, align 8
  call void @_ZN7QAction10setCheckedEb(ptr noundef nonnull align 8 dereferenceable(16) %28, i1 noundef zeroext true)
  br label %32

29:                                               ; preds = %21
  %30 = getelementptr inbounds %class.ByteViewText, ptr %3, i32 0, i32 32
  %31 = load ptr, ptr %30, align 8
  call void @_ZN7QAction10setCheckedEb(ptr noundef nonnull align 8 dereferenceable(16) %31, i1 noundef zeroext true)
  br label %32

32:                                               ; preds = %29, %26, %23, %21
  ret void
}

; Function Attrs: mustprogress uwtable
define void @_ZN12ByteViewText22updateByteViewSettingsEv(ptr noundef nonnull align 8 dereferenceable(328) %0) #0 align 2 {
  %2 = alloca ptr, align 8
  store ptr %0, ptr %2, align 8
  %3 = load ptr, ptr %2, align 8
  %4 = load i32, ptr getelementptr inbounds (%struct.recent_settings_tag, ptr @recent, i32 0, i32 14), align 8
  %5 = icmp eq i32 %4, 1
  %6 = select i1 %5, i32 8, i32 16
  %7 = getelementptr inbounds %class.ByteViewText, ptr %3, i32 0, i32 19
  store i32 %6, ptr %7, align 4
  call void @_ZN12ByteViewText17updateContextMenuEv(ptr noundef nonnull align 8 dereferenceable(328) %3)
  call void @_ZN12ByteViewText16updateScrollbarsEv(ptr noundef nonnull align 8 dereferenceable(328) %3)
  %8 = call noundef ptr @_ZNK19QAbstractScrollArea8viewportEv(ptr noundef nonnull align 8 dereferenceable(40) %3)
  call void @_ZN7QWidget6updateEv(ptr noundef nonnull align 8 dereferenceable(40) %8)
  ret void
}