; Function Attrs: mustprogress uwtable
define void @_ZN12ByteViewText22updateByteViewSettingsEv(ptr noundef nonnull align 8 dereferenceable(328) %0) local_unnamed_addr #0 align 2 {
  %2 = load i32, ptr getelementptr inbounds (%struct.recent_settings_tag, ptr @recent, i64 0, i32 14), align 8
  %3 = icmp eq i32 %2, 1
  %4 = select i1 %3, i32 8, i32 16
  %5 = getelementptr inbounds i8, ptr %0, i64 196
  store i32 %4, ptr %5, align 4
  %6 = getelementptr inbounds i8, ptr %0, i64 264
  %7 = load ptr, ptr %6, align 8
  %8 = load i32, ptr getelementptr inbounds (%struct.recent_settings_tag, ptr @recent, i64 0, i32 17), align 4
  %9 = icmp ne i32 %8, 0
  tail call void @_ZN7QAction10setCheckedEb(ptr noundef nonnull align 8 dereferenceable(16) %7, i1 noundef zeroext %9)
  %10 = load i32, ptr getelementptr inbounds (%struct.recent_settings_tag, ptr @recent, i64 0, i32 14), align 8
  %11 = icmp ult i32 %10, 4
  br i1 %11, label %switch.lookup, label %15

switch.lookup:                                    ; preds = %1
  %12 = zext nneg i32 %10 to i64
  %switch.gep = getelementptr inbounds [4 x i64], ptr @switch.table._ZN12ByteViewText22updateByteViewSettingsEv, i64 0, i64 %12
  %switch.load = load i64, ptr %switch.gep, align 8
  %13 = getelementptr inbounds i8, ptr %0, i64 %switch.load
  %14 = load ptr, ptr %13, align 8
  tail call void @_ZN7QAction10setCheckedEb(ptr noundef nonnull align 8 dereferenceable(16) %14, i1 noundef zeroext true)
  br label %15

15:                                               ; preds = %1, %switch.lookup
  %16 = load i32, ptr getelementptr inbounds (%struct.recent_settings_tag, ptr @recent, i64 0, i32 15), align 4
  %17 = icmp ult i32 %16, 3
  br i1 %17, label %switch.lookup1, label %_ZN12ByteViewText17updateContextMenuEv.exit

switch.lookup1:                                   ; preds = %15
  %18 = shl nuw nsw i32 %16, 3
  %19 = zext nneg i32 %18 to i64
  %20 = getelementptr i8, ptr %0, i64 %19
  %21 = getelementptr i8, ptr %20, i64 304
  %22 = load ptr, ptr %21, align 8
  tail call void @_ZN7QAction10setCheckedEb(ptr noundef nonnull align 8 dereferenceable(16) %22, i1 noundef zeroext true)
  br label %_ZN12ByteViewText17updateContextMenuEv.exit

_ZN12ByteViewText17updateContextMenuEv.exit:      ; preds = %15, %switch.lookup1
  tail call void @_ZN12ByteViewText16updateScrollbarsEv(ptr noundef nonnull align 8 dereferenceable(328) %0)
  %23 = tail call noundef ptr @_ZNK19QAbstractScrollArea8viewportEv(ptr noundef nonnull align 8 dereferenceable(40) %0)
  tail call void @_ZN7QWidget6updateEv(ptr noundef nonnull align 8 dereferenceable(40) %23)
  ret void
}